; ModuleID = '46/2127.c'
source_filename = "46/2127.c"
target datalayout = "e-m:e-p270:32:32-p271:32:32-p272:64:64-i64:64-f80:128-n8:16:32:64-S128"
target triple = "x86_64-pc-linux-gnu"

@.str = private unnamed_addr constant [4 x i8] c"%d\0A\00", align 1
@.str.1 = private unnamed_addr constant [6 x i8] c"%d %d\00", align 1
@.str.2 = private unnamed_addr constant [3 x i8] c"%d\00", align 1

; Function Attrs: noinline nounwind uwtable
define dso_local i32 @times(i32 %0, i32 %1) #0 {
  %3 = alloca i32, align 4
  %4 = alloca i32, align 4
  %5 = alloca i32, align 4
  %6 = alloca i32, align 4
  store i32 %0, i32* %4, align 4
  store i32 %1, i32* %5, align 4
  %7 = load i32, i32* %4, align 4
  %8 = load i32, i32* %5, align 4
  %9 = icmp slt i32 %7, %8
  br i1 %9, label %10, label %12

10:                                               ; preds = %2
  %11 = load i32, i32* %4, align 4
  br label %14

12:                                               ; preds = %2
  %13 = load i32, i32* %5, align 4
  br label %14

14:                                               ; preds = %12, %10
  %15 = phi i32 [ %11, %10 ], [ %13, %12 ]
  store i32 %15, i32* %6, align 4
  %16 = load i32, i32* %6, align 4
  %17 = srem i32 %16, 2
  %18 = icmp ne i32 %17, 0
  br i1 %18, label %19, label %23

19:                                               ; preds = %14
  %20 = load i32, i32* %6, align 4
  %21 = add nsw i32 %20, 1
  %22 = sdiv i32 %21, 2
  store i32 %22, i32* %3, align 4
  br label %26

23:                                               ; preds = %14
  %24 = load i32, i32* %6, align 4
  %25 = sdiv i32 %24, 2
  store i32 %25, i32* %3, align 4
  br label %26

26:                                               ; preds = %23, %19
  %27 = load i32, i32* %3, align 4
  ret i32 %27
}

; Function Attrs: noinline nounwind uwtable
define dso_local void @spinout([100 x i32]* %0, i32 %1, i32 %2) #0 {
  %4 = alloca [100 x i32]*, align 8
  %5 = alloca i32, align 4
  %6 = alloca i32, align 4
  %7 = alloca i32, align 4
  %8 = alloca i32, align 4
  %9 = alloca [100 x [100 x i32]], align 16
  store [100 x i32]* %0, [100 x i32]** %4, align 8
  store i32 %1, i32* %5, align 4
  store i32 %2, i32* %6, align 4
  %10 = bitcast [100 x [100 x i32]]* %9 to i8*
  call void @llvm.memset.p0i8.i64(i8* align 16 %10, i8 0, i64 40000, i1 false)
  store i32 0, i32* %7, align 4
  br label %11

11:                                               ; preds = %174, %3
  %12 = load i32, i32* %7, align 4
  %13 = load i32, i32* %5, align 4
  %14 = load i32, i32* %6, align 4
  %15 = call i32 @times(i32 %13, i32 %14)
  %16 = icmp slt i32 %12, %15
  br i1 %16, label %17, label %177

17:                                               ; preds = %11
  store i32 0, i32* %8, align 4
  br label %18

18:                                               ; preds = %48, %17
  %19 = load i32, i32* %8, align 4
  %20 = load i32, i32* %6, align 4
  %21 = icmp slt i32 %19, %20
  br i1 %21, label %22, label %51

22:                                               ; preds = %18
  %23 = load i32, i32* %7, align 4
  %24 = sext i32 %23 to i64
  %25 = getelementptr inbounds [100 x [100 x i32]], [100 x [100 x i32]]* %9, i64 0, i64 %24
  %26 = load i32, i32* %8, align 4
  %27 = sext i32 %26 to i64
  %28 = getelementptr inbounds [100 x i32], [100 x i32]* %25, i64 0, i64 %27
  %29 = load i32, i32* %28, align 4
  %30 = icmp eq i32 %29, 0
  br i1 %30, label %31, label %47

31:                                               ; preds = %22
  %32 = load [100 x i32]*, [100 x i32]** %4, align 8
  %33 = load i32, i32* %7, align 4
  %34 = sext i32 %33 to i64
  %35 = getelementptr inbounds [100 x i32], [100 x i32]* %32, i64 %34
  %36 = load i32, i32* %8, align 4
  %37 = sext i32 %36 to i64
  %38 = getelementptr inbounds [100 x i32], [100 x i32]* %35, i64 0, i64 %37
  %39 = load i32, i32* %38, align 4
  %40 = call i32 (i8*, ...) @printf(i8* getelementptr inbounds ([4 x i8], [4 x i8]* @.str, i64 0, i64 0), i32 %39)
  %41 = load i32, i32* %7, align 4
  %42 = sext i32 %41 to i64
  %43 = getelementptr inbounds [100 x [100 x i32]], [100 x [100 x i32]]* %9, i64 0, i64 %42
  %44 = load i32, i32* %8, align 4
  %45 = sext i32 %44 to i64
  %46 = getelementptr inbounds [100 x i32], [100 x i32]* %43, i64 0, i64 %45
  store i32 1, i32* %46, align 4
  br label %47

47:                                               ; preds = %31, %22
  br label %48

48:                                               ; preds = %47
  %49 = load i32, i32* %8, align 4
  %50 = add nsw i32 %49, 1
  store i32 %50, i32* %8, align 4
  br label %18

51:                                               ; preds = %18
  store i32 0, i32* %8, align 4
  br label %52

52:                                               ; preds = %91, %51
  %53 = load i32, i32* %8, align 4
  %54 = load i32, i32* %5, align 4
  %55 = icmp slt i32 %53, %54
  br i1 %55, label %56, label %94

56:                                               ; preds = %52
  %57 = load i32, i32* %8, align 4
  %58 = sext i32 %57 to i64
  %59 = getelementptr inbounds [100 x [100 x i32]], [100 x [100 x i32]]* %9, i64 0, i64 %58
  %60 = load i32, i32* %6, align 4
  %61 = sub nsw i32 %60, 1
  %62 = load i32, i32* %7, align 4
  %63 = sub nsw i32 %61, %62
  %64 = sext i32 %63 to i64
  %65 = getelementptr inbounds [100 x i32], [100 x i32]* %59, i64 0, i64 %64
  %66 = load i32, i32* %65, align 4
  %67 = icmp eq i32 %66, 0
  br i1 %67, label %68, label %90

68:                                               ; preds = %56
  %69 = load [100 x i32]*, [100 x i32]** %4, align 8
  %70 = load i32, i32* %8, align 4
  %71 = sext i32 %70 to i64
  %72 = getelementptr inbounds [100 x i32], [100 x i32]* %69, i64 %71
  %73 = load i32, i32* %6, align 4
  %74 = sub nsw i32 %73, 1
  %75 = load i32, i32* %7, align 4
  %76 = sub nsw i32 %74, %75
  %77 = sext i32 %76 to i64
  %78 = getelementptr inbounds [100 x i32], [100 x i32]* %72, i64 0, i64 %77
  %79 = load i32, i32* %78, align 4
  %80 = call i32 (i8*, ...) @printf(i8* getelementptr inbounds ([4 x i8], [4 x i8]* @.str, i64 0, i64 0), i32 %79)
  %81 = load i32, i32* %8, align 4
  %82 = sext i32 %81 to i64
  %83 = getelementptr inbounds [100 x [100 x i32]], [100 x [100 x i32]]* %9, i64 0, i64 %82
  %84 = load i32, i32* %6, align 4
  %85 = sub nsw i32 %84, 1
  %86 = load i32, i32* %7, align 4
  %87 = sub nsw i32 %85, %86
  %88 = sext i32 %87 to i64
  %89 = getelementptr inbounds [100 x i32], [100 x i32]* %83, i64 0, i64 %88
  store i32 1, i32* %89, align 4
  br label %90

90:                                               ; preds = %68, %56
  br label %91

91:                                               ; preds = %90
  %92 = load i32, i32* %8, align 4
  %93 = add nsw i32 %92, 1
  store i32 %93, i32* %8, align 4
  br label %52

94:                                               ; preds = %52
  %95 = load i32, i32* %6, align 4
  %96 = sub nsw i32 %95, 1
  store i32 %96, i32* %8, align 4
  br label %97

97:                                               ; preds = %135, %94
  %98 = load i32, i32* %8, align 4
  %99 = icmp sge i32 %98, 0
  br i1 %99, label %100, label %138

100:                                              ; preds = %97
  %101 = load i32, i32* %5, align 4
  %102 = sub nsw i32 %101, 1
  %103 = load i32, i32* %7, align 4
  %104 = sub nsw i32 %102, %103
  %105 = sext i32 %104 to i64
  %106 = getelementptr inbounds [100 x [100 x i32]], [100 x [100 x i32]]* %9, i64 0, i64 %105
  %107 = load i32, i32* %8, align 4
  %108 = sext i32 %107 to i64
  %109 = getelementptr inbounds [100 x i32], [100 x i32]* %106, i64 0, i64 %108
  %110 = load i32, i32* %109, align 4
  %111 = icmp eq i32 %110, 0
  br i1 %111, label %112, label %134

112:                                              ; preds = %100
  %113 = load [100 x i32]*, [100 x i32]** %4, align 8
  %114 = load i32, i32* %5, align 4
  %115 = sub nsw i32 %114, 1
  %116 = load i32, i32* %7, align 4
  %117 = sub nsw i32 %115, %116
  %118 = sext i32 %117 to i64
  %119 = getelementptr inbounds [100 x i32], [100 x i32]* %113, i64 %118
  %120 = load i32, i32* %8, align 4
  %121 = sext i32 %120 to i64
  %122 = getelementptr inbounds [100 x i32], [100 x i32]* %119, i64 0, i64 %121
  %123 = load i32, i32* %122, align 4
  %124 = call i32 (i8*, ...) @printf(i8* getelementptr inbounds ([4 x i8], [4 x i8]* @.str, i64 0, i64 0), i32 %123)
  %125 = load i32, i32* %5, align 4
  %126 = sub nsw i32 %125, 1
  %127 = load i32, i32* %7, align 4
  %128 = sub nsw i32 %126, %127
  %129 = sext i32 %128 to i64
  %130 = getelementptr inbounds [100 x [100 x i32]], [100 x [100 x i32]]* %9, i64 0, i64 %129
  %131 = load i32, i32* %8, align 4
  %132 = sext i32 %131 to i64
  %133 = getelementptr inbounds [100 x i32], [100 x i32]* %130, i64 0, i64 %132
  store i32 1, i32* %133, align 4
  br label %134

134:                                              ; preds = %112, %100
  br label %135

135:                                              ; preds = %134
  %136 = load i32, i32* %8, align 4
  %137 = add nsw i32 %136, -1
  store i32 %137, i32* %8, align 4
  br label %97

138:                                              ; preds = %97
  %139 = load i32, i32* %5, align 4
  %140 = sub nsw i32 %139, 1
  store i32 %140, i32* %8, align 4
  br label %141

141:                                              ; preds = %170, %138
  %142 = load i32, i32* %8, align 4
  %143 = icmp sge i32 %142, 0
  br i1 %143, label %144, label %173

144:                                              ; preds = %141
  %145 = load i32, i32* %8, align 4
  %146 = sext i32 %145 to i64
  %147 = getelementptr inbounds [100 x [100 x i32]], [100 x [100 x i32]]* %9, i64 0, i64 %146
  %148 = load i32, i32* %7, align 4
  %149 = sext i32 %148 to i64
  %150 = getelementptr inbounds [100 x i32], [100 x i32]* %147, i64 0, i64 %149
  %151 = load i32, i32* %150, align 4
  %152 = icmp eq i32 %151, 0
  br i1 %152, label %153, label %169

153:                                              ; preds = %144
  %154 = load [100 x i32]*, [100 x i32]** %4, align 8
  %155 = load i32, i32* %8, align 4
  %156 = sext i32 %155 to i64
  %157 = getelementptr inbounds [100 x i32], [100 x i32]* %154, i64 %156
  %158 = load i32, i32* %7, align 4
  %159 = sext i32 %158 to i64
  %160 = getelementptr inbounds [100 x i32], [100 x i32]* %157, i64 0, i64 %159
  %161 = load i32, i32* %160, align 4
  %162 = call i32 (i8*, ...) @printf(i8* getelementptr inbounds ([4 x i8], [4 x i8]* @.str, i64 0, i64 0), i32 %161)
  %163 = load i32, i32* %8, align 4
  %164 = sext i32 %163 to i64
  %165 = getelementptr inbounds [100 x [100 x i32]], [100 x [100 x i32]]* %9, i64 0, i64 %164
  %166 = load i32, i32* %7, align 4
  %167 = sext i32 %166 to i64
  %168 = getelementptr inbounds [100 x i32], [100 x i32]* %165, i64 0, i64 %167
  store i32 1, i32* %168, align 4
  br label %169

169:                                              ; preds = %153, %144
  br label %170

170:                                              ; preds = %169
  %171 = load i32, i32* %8, align 4
  %172 = add nsw i32 %171, -1
  store i32 %172, i32* %8, align 4
  br label %141

173:                                              ; preds = %141
  br label %174

174:                                              ; preds = %173
  %175 = load i32, i32* %7, align 4
  %176 = add nsw i32 %175, 1
  store i32 %176, i32* %7, align 4
  br label %11

177:                                              ; preds = %11
  ret void
}

; Function Attrs: argmemonly nounwind willreturn
declare void @llvm.memset.p0i8.i64(i8* nocapture writeonly, i8, i64, i1 immarg) #1

declare dso_local i32 @printf(i8*, ...) #2

; Function Attrs: noinline nounwind uwtable
define dso_local void @main() #0 {
  %1 = alloca i32, align 4
  %2 = alloca i32, align 4
  %3 = alloca i32, align 4
  %4 = alloca i32, align 4
  %5 = alloca [100 x [100 x i32]], align 16
  %6 = call i32 (i8*, ...) @__isoc99_scanf(i8* getelementptr inbounds ([6 x i8], [6 x i8]* @.str.1, i64 0, i64 0), i32* %1, i32* %2)
  store i32 0, i32* %3, align 4
  br label %7

7:                                                ; preds = %30, %0
  %8 = load i32, i32* %3, align 4
  %9 = load i32, i32* %1, align 4
  %10 = icmp slt i32 %8, %9
  br i1 %10, label %11, label %33

11:                                               ; preds = %7
  store i32 0, i32* %4, align 4
  br label %12

12:                                               ; preds = %26, %11
  %13 = load i32, i32* %4, align 4
  %14 = load i32, i32* %2, align 4
  %15 = icmp slt i32 %13, %14
  br i1 %15, label %16, label %29

16:                                               ; preds = %12
  %17 = getelementptr inbounds [100 x [100 x i32]], [100 x [100 x i32]]* %5, i64 0, i64 0
  %18 = load i32, i32* %3, align 4
  %19 = sext i32 %18 to i64
  %20 = getelementptr inbounds [100 x i32], [100 x i32]* %17, i64 %19
  %21 = getelementptr inbounds [100 x i32], [100 x i32]* %20, i64 0, i64 0
  %22 = load i32, i32* %4, align 4
  %23 = sext i32 %22 to i64
  %24 = getelementptr inbounds i32, i32* %21, i64 %23
  %25 = call i32 (i8*, ...) @__isoc99_scanf(i8* getelementptr inbounds ([3 x i8], [3 x i8]* @.str.2, i64 0, i64 0), i32* %24)
  br label %26

26:                                               ; preds = %16
  %27 = load i32, i32* %4, align 4
  %28 = add nsw i32 %27, 1
  store i32 %28, i32* %4, align 4
  br label %12

29:                                               ; preds = %12
  br label %30

30:                                               ; preds = %29
  %31 = load i32, i32* %3, align 4
  %32 = add nsw i32 %31, 1
  store i32 %32, i32* %3, align 4
  br label %7

33:                                               ; preds = %7
  %34 = getelementptr inbounds [100 x [100 x i32]], [100 x [100 x i32]]* %5, i64 0, i64 0
  %35 = load i32, i32* %1, align 4
  %36 = load i32, i32* %2, align 4
  call void @spinout([100 x i32]* %34, i32 %35, i32 %36)
  ret void
}

declare dso_local i32 @__isoc99_scanf(i8*, ...) #2


!llvm.module.flags = !{!0}
!llvm.ident = !{!1}

!0 = !{i32 1, !"wchar_size", i32 4}
!1 = !{!"clang version 10.0.0-4ubuntu1 "}
